; Function Attrs: mustprogress uwtable
define noundef i32 @_ZNK7Imf_3_419DeepTiledOutputFile9numLevelsEv(ptr noundef nonnull readonly align 8 captures(none) dereferenceable(16) %0) local_unnamed_addr #5 align 2 personality ptr @__gxx_personality_v0 {
  %2 = alloca %"class.std::__cxx11::basic_stringstream", align 8
  %3 = getelementptr inbounds nuw i8, ptr %0, i64 8
  %4 = load ptr, ptr %3, align 8, !tbaa !126
  %5 = getelementptr inbounds nuw i8, ptr %4, i64 72
  %6 = load i32, ptr %5, align 8, !tbaa !161
  %7 = icmp eq i32 %6, 2
  br i1 %7, label %8, label %27

8:                                                ; preds = %1
  tail call void @_Z13iex_debugTrapv()
  call void @llvm.lifetime.start.p0(i64 392, ptr nonnull %2) #25
  call void @_ZNSt7__cxx1118basic_stringstreamIcSt11char_traitsIcESaIcEEC1Ev(ptr noundef nonnull align 8 dereferenceable(128) %2)
  %9 = getelementptr inbounds nuw i8, ptr %2, i64 16
  %10 = invoke noundef nonnull align 8 dereferenceable(8) ptr @_ZSt16__ostream_insertIcSt11char_traitsIcEERSt13basic_ostreamIT_T0_ES6_PKS3_l(ptr noundef nonnull align 8 dereferenceable(8) %9, ptr noundef nonnull @.str.34, i64 noundef 41)
          to label %_ZStlsISt11char_traitsIcEERSt13basic_ostreamIcT_ES5_PKc.exit unwind label %22

_ZStlsISt11char_traitsIcEERSt13basic_ostreamIcT_ES5_PKc.exit: ; preds = %8
  %11 = load ptr, ptr %3, align 8, !tbaa !126
  %12 = getelementptr inbounds nuw i8, ptr %11, i64 448
  %13 = load ptr, ptr %12, align 8, !tbaa !72
  %14 = getelementptr inbounds nuw i8, ptr %13, i64 40
  %15 = load ptr, ptr %14, align 8, !tbaa !130
  %16 = invoke noundef ptr @_ZNK7Imf_3_47OStream8fileNameEv(ptr noundef nonnull align 8 dereferenceable(40) %15)
          to label %_ZNK7Imf_3_419DeepTiledOutputFile8fileNameEv.exit unwind label %22

_ZNK7Imf_3_419DeepTiledOutputFile8fileNameEv.exit: ; preds = %_ZStlsISt11char_traitsIcEERSt13basic_ostreamIcT_ES5_PKc.exit
  %17 = invoke noundef nonnull align 8 dereferenceable(8) ptr @_ZStlsISt11char_traitsIcEERSt13basic_ostreamIcT_ES5_PKc(ptr noundef nonnull align 8 dereferenceable(8) %9, ptr noundef %16)
          to label %18 unwind label %22

18:                                               ; preds = %_ZNK7Imf_3_419DeepTiledOutputFile8fileNameEv.exit
  %19 = invoke noundef nonnull align 8 dereferenceable(8) ptr @_ZSt16__ostream_insertIcSt11char_traitsIcEERSt13basic_ostreamIT_T0_ES6_PKS3_l(ptr noundef nonnull align 8 dereferenceable(8) %17, ptr noundef nonnull @.str.35, i64 noundef 43)
          to label %_ZStlsISt11char_traitsIcEERSt13basic_ostreamIcT_ES5_PKc.exit4 unwind label %22

_ZStlsISt11char_traitsIcEERSt13basic_ostreamIcT_ES5_PKc.exit4: ; preds = %18
  %20 = call ptr @__cxa_allocate_exception(i64 72) #25
  invoke void @_ZN7Iex_3_48LogicExcC1ERNSt7__cxx1118basic_stringstreamIcSt11char_traitsIcESaIcEEE(ptr noundef nonnull align 8 dereferenceable(72) %20, ptr noundef nonnull align 8 dereferenceable(128) %2)
          to label %21 unwind label %24

21:                                               ; preds = %_ZStlsISt11char_traitsIcEERSt13basic_ostreamIcT_ES5_PKc.exit4
  invoke void @__cxa_throw(ptr nonnull %20, ptr nonnull @_ZTIN7Iex_3_48LogicExcE, ptr nonnull @_ZN7Iex_3_48LogicExcD1Ev) #30
          to label %30 unwind label %22

22:                                               ; preds = %18, %_ZStlsISt11char_traitsIcEERSt13basic_ostreamIcT_ES5_PKc.exit, %8, %21, %_ZNK7Imf_3_419DeepTiledOutputFile8fileNameEv.exit
  %23 = landingpad { ptr, i32 }
          cleanup
  br label %26

24:                                               ; preds = %_ZStlsISt11char_traitsIcEERSt13basic_ostreamIcT_ES5_PKc.exit4
  %25 = landingpad { ptr, i32 }
          cleanup
  call void @__cxa_free_exception(ptr nonnull %20) #25
  br label %26

26:                                               ; preds = %24, %22
  %.pn = phi { ptr, i32 } [ %23, %22 ], [ %25, %24 ]
  call void @_ZNSt7__cxx1118basic_stringstreamIcSt11char_traitsIcESaIcEED1Ev(ptr noundef nonnull align 8 dereferenceable(128) %2) #25
  call void @llvm.lifetime.end.p0(i64 392, ptr nonnull %2) #25
  resume { ptr, i32 } %.pn

27:                                               ; preds = %1
  %28 = getelementptr inbounds nuw i8, ptr %4, i64 212
  %29 = load i32, ptr %28, align 4, !tbaa !162
  ret i32 %29

30:                                               ; preds = %21
  unreachable
}